Certificate:
    Data:
        Version: 3 (0x2)
        Serial Number:
            75:ab:13:0d:09:45:d2:48:f2:aa:e0:30:ef:40:be:d3
    Signature Algorithm: sha256WithRSAEncryption
        Issuer: CN=Easy-RSA CA
        Validity
            Not Before: Nov 12 14:18:48 2016 GMT
            Not After : Nov 10 14:18:48 2026 GMT
        Subject: CN=iphone
        Subject Public Key Info:
            Public Key Algorithm: rsaEncryption
                Public-Key: (2048 bit)
                Modulus:
                    00:c7:c4:6b:d1:1d:7d:04:9c:9e:23:7c:2d:93:4d:
                    d2:1d:c3:e3:da:e3:c5:bd:6d:36:3e:ae:5b:1f:4e:
                    d6:ec:b3:7d:70:7d:9e:91:3f:8b:f5:71:b9:67:b1:
                    5a:a9:7b:24:8f:37:cf:6a:83:45:a3:c9:e9:5e:31:
                    2d:37:f9:01:85:47:3a:8f:65:30:18:8a:9e:74:2a:
                    6f:9a:33:f2:1d:43:ab:f5:de:fb:9c:ba:ed:8f:b8:
                    dc:7c:8b:7a:fa:d8:71:b8:9a:3d:c2:ac:63:f4:9c:
                    84:38:63:4b:7e:7c:97:d8:2c:cd:c7:5d:4c:32:4f:
                    61:1d:36:49:bf:a1:0c:e9:2f:cb:76:a3:7b:ab:2f:
                    85:1c:a4:d0:84:9c:87:62:e2:a4:8c:a8:4c:14:18:
                    85:62:2c:4e:73:41:87:0f:90:e1:bb:97:fd:b1:92:
                    f6:bd:a9:17:e0:42:b5:39:d1:a4:8b:26:85:15:27:
                    c3:0e:23:41:3d:ef:be:61:8a:fc:cf:57:4d:3a:eb:
                    a4:9d:ad:5e:c4:25:bd:3d:58:61:e1:b5:92:0e:99:
                    ee:30:13:5a:42:62:0a:e8:1a:ce:28:a1:15:9b:e9:
                    54:99:44:d3:6f:1c:12:9d:7f:2e:4f:f9:50:d1:72:
                    9a:ae:29:53:04:b9:bf:8f:46:0e:59:47:1c:a4:4f:
                    28:07
                Exponent: 65537 (0x10001)
        X509v3 extensions:
            X509v3 Basic Constraints: 
                CA:FALSE
            X509v3 Subject Key Identifier: 
                72:52:F0:94:DC:2E:D0:32:DB:8F:C0:BF:C1:7C:6B:BB:CF:04:70:B8
            X509v3 Authority Key Identifier: 
                keyid:84:96:E8:7A:ED:E0:9B:BA:FC:F3:5E:B7:03:57:16:66:90:4D:5D:85
                DirName:/CN=Easy-RSA CA
                serial:A5:D1:2D:10:62:FC:CF:A8

            X509v3 Extended Key Usage: 
                TLS Web Client Authentication
            X509v3 Key Usage: 
                Digital Signature
    Signature Algorithm: sha256WithRSAEncryption
         1d:d6:bd:c4:e6:e6:f2:80:69:f2:58:1c:85:95:04:d3:d5:89:
         00:fb:fa:78:d6:e8:91:84:eb:c8:b2:bc:ff:22:ea:9a:20:44:
         8b:c7:e4:98:af:2d:92:e7:34:1c:25:84:80:20:37:78:00:3b:
         94:f7:0a:6d:17:44:9e:a7:2a:c4:5e:b0:6c:2b:20:9b:c6:3f:
         9b:07:a3:67:b4:9a:f1:02:73:d6:30:80:d4:6f:77:41:1b:1d:
         d1:93:9a:e1:df:bf:35:85:fe:16:0e:83:12:1c:f6:f6:7a:5f:
         f7:42:90:e5:c3:e6:05:dc:d0:85:12:fd:60:a7:4d:62:53:57:
         5b:a1:49:24:0b:16:78:76:83:85:04:d6:c6:2c:fe:a4:32:98:
         dc:45:fe:03:a3:60:17:3c:ef:97:b9:58:45:89:c6:74:6f:b6:
         81:36:26:f9:f6:cb:fd:70:f7:83:45:36:e8:c2:ad:c8:02:b7:
         55:1a:d1:20:67:fc:e2:9d:41:6f:96:8c:52:6c:a5:a7:da:77:
         9f:32:84:8a:f7:3e:3e:51:0f:e1:8e:99:ea:fa:b2:30:24:52:
         fa:9c:a5:7d:4a:f2:23:62:22:19:85:3b:e2:61:8f:4b:7c:a8:
         99:fa:43:09:cf:3c:45:97:b3:d1:74:6f:77:01:21:51:e7:bd:
         80:da:3a:11
-----BEGIN CERTIFICATE-----
MIIDSTCCAjGgAwIBAgIQdasTDQlF0kjyquAw70C+0zANBgkqhkiG9w0BAQsFADAW
MRQwEgYDVQQDEwtFYXN5LVJTQSBDQTAeFw0xNjExMTIxNDE4NDhaFw0yNjExMTAx
NDE4NDhaMBExDzANBgNVBAMTBmlwaG9uZTCCASIwDQYJKoZIhvcNAQEBBQADggEP
ADCCAQoCggEBAMfEa9EdfQScniN8LZNN0h3D49rjxb1tNj6uWx9O1uyzfXB9npE/
i/VxuWexWql7JI83z2qDRaPJ6V4xLTf5AYVHOo9lMBiKnnQqb5oz8h1Dq/Xe+5y6
7Y+43HyLevrYcbiaPcKsY/SchDhjS358l9gszcddTDJPYR02Sb+hDOkvy3aje6sv
hRyk0ISch2LipIyoTBQYhWIsTnNBhw+Q4buX/bGS9r2pF+BCtTnRpIsmhRUnww4j
QT3vvmGK/M9XTTrrpJ2tXsQlvT1YYeG1kg6Z7jATWkJiCugaziihFZvpVJlE028c
Ep1/Lk/5UNFymq4pUwS5v49GDllHHKRPKAcCAwEAAaOBlzCBlDAJBgNVHRMEAjAA
MB0GA1UdDgQWBBRyUvCU3C7QMtuPwL/BfGu7zwRwuDBGBgNVHSMEPzA9gBSEluh6
7eCbuvzzXrcDVxZmkE1dhaEapBgwFjEUMBIGA1UEAxMLRWFzeS1SU0EgQ0GCCQCl
0S0QYvzPqDATBgNVHSUEDDAKBggrBgEFBQcDAjALBgNVHQ8EBAMCB4AwDQYJKoZI
hvcNAQELBQADggEBAB3WvcTm5vKAafJYHIWVBNPViQD7+njW6JGE68iyvP8i6pog
RIvH5JivLZLnNBwlhIAgN3gAO5T3Cm0XRJ6nKsResGwrIJvGP5sHo2e0mvECc9Yw
gNRvd0EbHdGTmuHfvzWF/hYOgxIc9vZ6X/dCkOXD5gXc0IUS/WCnTWJTV1uhSSQL
Fnh2g4UE1sYs/qQymNxF/gOjYBc875e5WEWJxnRvtoE2Jvn2y/1w94NFNujCrcgC
t1Ua0SBn/OKdQW+WjFJspafad58yhIr3Pj5RD+GOmer6sjAkUvqcpX1K8iNiIhmF
O+Jhj0t8qJn6QwnPPEWXs9F0b3cBIVHnvYDaOhE=
-----END CERTIFICATE-----
