Certificate:
    Data:
        Version: 3 (0x2)
        Serial Number:
            83:5f:f4:ba:1d:3f:93:e6:b4:09:85:84:dc:88:a0:4e
    Signature Algorithm: sha256WithRSAEncryption
        Issuer: CN=Easy-RSA CA
        Validity
            Not Before: Nov 12 17:19:22 2016 GMT
            Not After : Nov 10 17:19:22 2026 GMT
        Subject: CN=pc
        Subject Public Key Info:
            Public Key Algorithm: rsaEncryption
                Public-Key: (2048 bit)
                Modulus:
                    00:ba:67:f2:40:3e:69:73:26:ae:3b:41:10:8a:8d:
                    da:12:fb:50:54:ef:83:b3:5f:c8:aa:c7:d9:f4:91:
                    4b:7c:48:73:ce:25:bb:85:58:eb:7f:21:d8:31:72:
                    94:91:6b:dd:f1:55:2a:f2:3a:c3:6c:50:4d:ac:07:
                    b1:69:90:cc:b6:64:4c:35:95:fd:8d:45:d9:3e:75:
                    ce:7a:98:44:15:b1:a8:72:a3:4b:2c:ab:1b:a2:b4:
                    2a:78:4b:59:46:bb:9a:16:dc:ad:48:25:b8:7a:d0:
                    b0:b3:ae:72:d1:d0:90:ab:a0:59:89:56:b6:fc:32:
                    b7:c9:86:a2:d1:7a:d2:a5:ff:51:21:38:be:5a:6b:
                    0a:20:de:38:62:1a:6d:2e:26:f4:46:ed:f8:34:dc:
                    52:2f:76:e4:9e:34:63:03:db:21:9f:34:67:85:d4:
                    cf:dc:bf:11:32:ee:d9:a3:6b:ca:b6:e1:4f:9b:2f:
                    c2:e1:e5:40:a0:eb:94:89:99:4b:57:04:aa:d7:e5:
                    21:6f:88:b2:27:5d:f3:d7:a6:47:ae:e5:68:2d:98:
                    3b:b3:ab:3a:d8:79:5f:c9:67:71:08:e7:b3:2c:ff:
                    c5:b0:36:bd:6a:71:2c:2c:e2:79:70:a8:f1:f2:33:
                    fb:36:61:23:86:b0:f8:d1:6d:d2:08:02:5e:36:e0:
                    1c:2b
                Exponent: 65537 (0x10001)
        X509v3 extensions:
            X509v3 Basic Constraints: 
                CA:FALSE
            X509v3 Subject Key Identifier: 
                D4:F0:6A:C3:96:0C:05:72:28:C1:5F:FE:44:24:C6:06:E7:69:4E:2B
            X509v3 Authority Key Identifier: 
                keyid:84:96:E8:7A:ED:E0:9B:BA:FC:F3:5E:B7:03:57:16:66:90:4D:5D:85
                DirName:/CN=Easy-RSA CA
                serial:A5:D1:2D:10:62:FC:CF:A8

            X509v3 Extended Key Usage: 
                TLS Web Client Authentication
            X509v3 Key Usage: 
                Digital Signature
    Signature Algorithm: sha256WithRSAEncryption
         38:ee:bd:08:d9:7f:c5:67:9c:27:de:95:b5:17:9c:22:18:22:
         c4:43:5a:52:1a:40:80:8a:cd:3a:c8:07:c6:1c:c9:69:0f:8b:
         55:12:10:12:1c:c6:d8:45:b7:83:34:8c:36:38:cc:3e:9e:49:
         2c:d5:93:f6:e8:cd:df:3b:51:1a:e2:5e:3c:3e:83:c0:64:a2:
         b6:2b:07:97:33:17:28:0e:e1:5d:5d:18:4b:ca:fd:28:e9:a6:
         85:a5:01:1f:dc:64:fc:86:3f:cf:f1:b8:59:45:ce:7f:fc:e1:
         cf:12:0b:7d:88:dd:55:d7:0b:14:17:ef:2f:f7:5e:65:aa:64:
         b2:65:5c:ad:f5:0c:43:cd:94:cd:34:a5:6c:c7:63:2d:a4:94:
         99:37:4b:72:03:1b:41:8b:8b:e2:0e:d2:59:9c:db:70:c7:67:
         f0:36:38:d0:4a:4e:e9:72:26:97:84:ae:8a:1a:39:c5:02:ed:
         ea:33:e5:99:b4:c0:01:d6:eb:54:c0:e3:38:2d:d0:6f:4b:29:
         b8:68:a9:27:fb:e0:94:2a:25:b6:8d:01:df:d3:4d:a5:cf:f5:
         5b:96:aa:ac:25:df:e2:70:f0:f8:a6:a5:cd:58:8c:31:1e:43:
         d9:60:fa:b3:15:5a:ec:84:08:34:d1:ce:b7:05:71:68:b3:1e:
         ec:be:86:7f
-----BEGIN CERTIFICATE-----
MIIDRjCCAi6gAwIBAgIRAINf9LodP5PmtAmFhNyIoE4wDQYJKoZIhvcNAQELBQAw
FjEUMBIGA1UEAxMLRWFzeS1SU0EgQ0EwHhcNMTYxMTEyMTcxOTIyWhcNMjYxMTEw
MTcxOTIyWjANMQswCQYDVQQDEwJwYzCCASIwDQYJKoZIhvcNAQEBBQADggEPADCC
AQoCggEBALpn8kA+aXMmrjtBEIqN2hL7UFTvg7NfyKrH2fSRS3xIc84lu4VY638h
2DFylJFr3fFVKvI6w2xQTawHsWmQzLZkTDWV/Y1F2T51znqYRBWxqHKjSyyrG6K0
KnhLWUa7mhbcrUgluHrQsLOuctHQkKugWYlWtvwyt8mGotF60qX/USE4vlprCiDe
OGIabS4m9Ebt+DTcUi925J40YwPbIZ80Z4XUz9y/ETLu2aNryrbhT5svwuHlQKDr
lImZS1cEqtflIW+Isidd89emR67laC2YO7OrOth5X8lncQjnsyz/xbA2vWpxLCzi
eXCo8fIz+zZhI4aw+NFt0ggCXjbgHCsCAwEAAaOBlzCBlDAJBgNVHRMEAjAAMB0G
A1UdDgQWBBTU8GrDlgwFcijBX/5EJMYG52lOKzBGBgNVHSMEPzA9gBSEluh67eCb
uvzzXrcDVxZmkE1dhaEapBgwFjEUMBIGA1UEAxMLRWFzeS1SU0EgQ0GCCQCl0S0Q
YvzPqDATBgNVHSUEDDAKBggrBgEFBQcDAjALBgNVHQ8EBAMCB4AwDQYJKoZIhvcN
AQELBQADggEBADjuvQjZf8VnnCfelbUXnCIYIsRDWlIaQICKzTrIB8YcyWkPi1US
EBIcxthFt4M0jDY4zD6eSSzVk/bozd87URriXjw+g8BkorYrB5czFygO4V1dGEvK
/SjppoWlAR/cZPyGP8/xuFlFzn/84c8SC32I3VXXCxQX7y/3XmWqZLJlXK31DEPN
lM00pWzHYy2klJk3S3IDG0GLi+IO0lmc23DHZ/A2ONBKTulyJpeErooaOcUC7eoz
5Zm0wAHW61TA4zgt0G9LKbhoqSf74JQqJbaNAd/TTaXP9VuWqqwl3+Jw8Pimpc1Y
jDEeQ9lg+rMVWuyECDTRzrcFcWizHuy+hn8=
-----END CERTIFICATE-----
