Certificate:
    Data:
        Version: 3 (0x2)
        Serial Number:
            a0:7b:ed:af:c0:bc:6e:81:41:7a:ce:c2:25:2c:cb:63
    Signature Algorithm: sha256WithRSAEncryption
        Issuer: CN=Easy-RSA CA
        Validity
            Not Before: Nov 12 14:18:14 2016 GMT
            Not After : Nov 10 14:18:14 2026 GMT
        Subject: CN=vpnklimdos
        Subject Public Key Info:
            Public Key Algorithm: rsaEncryption
                Public-Key: (2048 bit)
                Modulus:
                    00:dd:1c:65:59:b2:a0:dc:5a:e5:8b:20:81:8b:8e:
                    7d:12:1f:a7:e1:31:5f:42:bf:d1:69:19:32:ff:38:
                    9c:33:56:d4:40:b0:91:6c:8f:05:84:34:81:cd:55:
                    0d:52:48:61:5e:c4:bc:61:e7:02:f1:4c:3b:cf:1a:
                    02:44:14:e0:4f:ee:51:61:6b:13:87:ed:cd:45:b4:
                    a8:9b:08:ca:30:91:25:44:a5:37:77:62:62:91:b7:
                    90:40:59:da:d0:00:31:8b:90:65:4e:45:0f:21:77:
                    80:e7:21:58:5d:99:29:d7:e0:30:f6:16:f8:ce:cc:
                    56:0d:cb:ef:ac:95:58:03:73:d6:c5:12:b5:08:f7:
                    04:2b:8e:1b:47:90:6d:44:2b:a1:2b:b1:87:b3:fb:
                    a1:5b:b8:d7:f6:90:71:44:a1:0c:55:fc:cd:6e:18:
                    d0:35:c3:e6:d1:d0:d6:38:e5:4f:d9:5b:18:51:81:
                    a9:ec:40:93:55:79:64:39:72:3c:6c:a0:f9:7d:cf:
                    08:93:fc:a6:1c:ba:74:ee:4b:4d:88:bc:da:f1:1a:
                    b8:d3:71:38:3a:96:7c:e4:ee:05:d0:ab:78:de:36:
                    0c:18:f1:fb:13:d3:0c:12:54:03:b4:71:ba:c8:d5:
                    9e:3f:ff:5e:4a:a2:08:65:2f:53:13:12:22:25:1a:
                    f3:23
                Exponent: 65537 (0x10001)
        X509v3 extensions:
            X509v3 Basic Constraints: 
                CA:FALSE
            X509v3 Subject Key Identifier: 
                44:CE:A8:DD:E2:F9:1B:0E:32:84:67:CA:63:C5:7A:7B:76:EF:D5:62
            X509v3 Authority Key Identifier: 
                keyid:84:96:E8:7A:ED:E0:9B:BA:FC:F3:5E:B7:03:57:16:66:90:4D:5D:85
                DirName:/CN=Easy-RSA CA
                serial:A5:D1:2D:10:62:FC:CF:A8

            X509v3 Extended Key Usage: 
                TLS Web Server Authentication
            X509v3 Key Usage: 
                Digital Signature, Key Encipherment
    Signature Algorithm: sha256WithRSAEncryption
         21:58:e1:d8:e3:e1:6e:0b:1d:3b:03:bc:20:d6:3a:d5:d5:7d:
         2a:73:dd:5b:be:02:10:b4:e7:e7:11:22:27:f2:af:17:fd:d0:
         c5:0a:05:11:b2:e8:08:c7:e5:37:eb:d7:94:fd:60:e6:e8:d6:
         36:0d:25:8d:d9:c1:9a:f7:e1:85:e3:a9:0f:33:15:eb:aa:ce:
         43:98:2b:80:f6:43:be:65:03:12:a5:68:01:78:94:14:c1:36:
         3d:83:73:c1:60:b6:cc:82:54:12:c3:ef:01:88:35:3c:9b:b3:
         1c:02:74:a4:d7:0c:8f:73:46:0c:09:03:1b:38:c7:25:ca:fc:
         36:c6:f7:4b:26:84:08:8d:57:92:15:8e:cc:60:a9:9b:b3:7b:
         4a:d8:0e:18:e5:3a:e0:ab:eb:fe:d0:68:61:5e:37:37:fd:77:
         9f:17:e2:9d:07:e2:54:ea:8a:32:ea:70:ea:5f:24:ac:e5:3f:
         71:bc:08:b3:18:9c:4a:2d:3e:af:4a:21:1c:17:f9:dc:88:29:
         cb:fc:b8:67:e9:79:da:ef:18:bc:be:43:44:2f:13:3e:e0:b9:
         d9:83:b9:36:ce:b0:8a:69:29:8d:05:02:af:0f:49:12:2f:dd:
         0f:16:a1:e9:c7:4f:a4:f6:f2:92:70:80:bc:04:36:b3:b9:b1:
         27:4a:ac:17
-----BEGIN CERTIFICATE-----
MIIDTjCCAjagAwIBAgIRAKB77a/AvG6BQXrOwiUsy2MwDQYJKoZIhvcNAQELBQAw
FjEUMBIGA1UEAxMLRWFzeS1SU0EgQ0EwHhcNMTYxMTEyMTQxODE0WhcNMjYxMTEw
MTQxODE0WjAVMRMwEQYDVQQDEwp2cG5rbGltZG9zMIIBIjANBgkqhkiG9w0BAQEF
AAOCAQ8AMIIBCgKCAQEA3RxlWbKg3FrliyCBi459Eh+n4TFfQr/RaRky/zicM1bU
QLCRbI8FhDSBzVUNUkhhXsS8YecC8Uw7zxoCRBTgT+5RYWsTh+3NRbSomwjKMJEl
RKU3d2JikbeQQFna0AAxi5BlTkUPIXeA5yFYXZkp1+Aw9hb4zsxWDcvvrJVYA3PW
xRK1CPcEK44bR5BtRCuhK7GHs/uhW7jX9pBxRKEMVfzNbhjQNcPm0dDWOOVP2VsY
UYGp7ECTVXlkOXI8bKD5fc8Ik/ymHLp07ktNiLza8Rq403E4OpZ85O4F0Kt43jYM
GPH7E9MMElQDtHG6yNWeP/9eSqIIZS9TExIiJRrzIwIDAQABo4GXMIGUMAkGA1Ud
EwQCMAAwHQYDVR0OBBYEFETOqN3i+RsOMoRnymPFent279ViMEYGA1UdIwQ/MD2A
FISW6Hrt4Ju6/PNetwNXFmaQTV2FoRqkGDAWMRQwEgYDVQQDEwtFYXN5LVJTQSBD
QYIJAKXRLRBi/M+oMBMGA1UdJQQMMAoGCCsGAQUFBwMBMAsGA1UdDwQEAwIFoDAN
BgkqhkiG9w0BAQsFAAOCAQEAIVjh2OPhbgsdOwO8INY61dV9KnPdW74CELTn5xEi
J/KvF/3QxQoFEbLoCMflN+vXlP1g5ujWNg0ljdnBmvfhheOpDzMV66rOQ5grgPZD
vmUDEqVoAXiUFME2PYNzwWC2zIJUEsPvAYg1PJuzHAJ0pNcMj3NGDAkDGzjHJcr8
Nsb3SyaECI1XkhWOzGCpm7N7StgOGOU64Kvr/tBoYV43N/13nxfinQfiVOqKMupw
6l8krOU/cbwIsxicSi0+r0ohHBf53Igpy/y4Z+l52u8YvL5DRC8TPuC52YO5Ns6w
imkpjQUCrw9JEi/dDxah6cdPpPbyknCAvAQ2s7mxJ0qsFw==
-----END CERTIFICATE-----
